target datalayout = "e-m:e-p270:32:32-p271:32:32-p272:64:64-i64:64-i128:128-f80:128-n8:16:32:64-S128"
target triple = "x86_64-pc-linux-gnu"

%struct.expert_field = type { i32, i32 }

@hf_eip_security_capability_flags = internal global i32 0, align 4
@ett_eip_security_capability_flags = internal global i32 0, align 4
@ei_mal_eip_security_capability_flags = internal global %struct.expert_field zeroinitializer, align 4
@dissect_eip_security_cap.capabilities = internal constant [3 x ptr] [ptr @hf_eip_security_capflags_secure_renegotiation, ptr @hf_eip_security_capflags_reserved, ptr null], align 16

; Function Attrs: null_pointer_is_valid sspstrong uwtable
define internal i32 @dissect_eip_security_cap(ptr noundef %0, ptr noundef %1, ptr noundef %2, ptr noundef %3, i32 noundef %4, i32 noundef %5) #0 {
  %7 = alloca i32, align 4
  %8 = alloca ptr, align 8
  %9 = alloca ptr, align 8
  %10 = alloca ptr, align 8
  %11 = alloca ptr, align 8
  %12 = alloca i32, align 4
  %13 = alloca i32, align 4
  store ptr %0, ptr %8, align 8
  store ptr %1, ptr %9, align 8
  store ptr %2, ptr %10, align 8
  store ptr %3, ptr %11, align 8
  store i32 %4, ptr %12, align 4
  store i32 %5, ptr %13, align 4
  %14 = load i32, ptr %13, align 4
  %15 = icmp slt i32 %14, 4
  br i1 %15, label %16, label %21

16:                                               ; preds = %6
  %17 = load ptr, ptr %8, align 8
  %18 = load ptr, ptr %10, align 8
  %19 = call ptr @expert_add_info(ptr noundef %17, ptr noundef %18, ptr noundef @ei_mal_eip_security_capability_flags)
  %20 = load i32, ptr %13, align 4
  store i32 %20, ptr %7, align 4
  br label %28

21:                                               ; preds = %6
  %22 = load ptr, ptr %9, align 8
  %23 = load ptr, ptr %11, align 8
  %24 = load i32, ptr %12, align 4
  %25 = load i32, ptr @hf_eip_security_capability_flags, align 4
  %26 = load i32, ptr @ett_eip_security_capability_flags, align 4
  %27 = call ptr @proto_tree_add_bitmask(ptr noundef %22, ptr noundef %23, i32 noundef %24, i32 noundef %25, i32 noundef %26, ptr noundef @dissect_eip_security_cap.capabilities, i32 noundef -2147483648)
  store i32 4, ptr %7, align 4
  br label %28

28:                                               ; preds = %21, %16
  %29 = load i32, ptr %7, align 4
  ret i32 %29
}