; Function Attrs: null_pointer_is_valid sspstrong uwtable
define internal range(i32 -2147483648, 5) i32 @dissect_eip_security_cap(ptr noundef %0, ptr noundef %1, ptr noundef %2, ptr noundef %3, i32 noundef %4, i32 noundef %5) #0 {
  %7 = icmp slt i32 %5, 4
  br i1 %7, label %8, label %10

8:                                                ; preds = %6
  %9 = tail call ptr @expert_add_info(ptr noundef %0, ptr noundef %2, ptr noundef nonnull @ei_mal_eip_security_capability_flags)
  br label %14

10:                                               ; preds = %6
  %11 = load i32, ptr @hf_eip_security_capability_flags, align 4
  %12 = load i32, ptr @ett_eip_security_capability_flags, align 4
  %13 = tail call ptr @proto_tree_add_bitmask(ptr noundef %1, ptr noundef %3, i32 noundef %4, i32 noundef %11, i32 noundef %12, ptr noundef nonnull @dissect_eip_security_cap.capabilities, i32 noundef -2147483648)
  br label %14

14:                                               ; preds = %10, %8
  %.0 = phi i32 [ %5, %8 ], [ 4, %10 ]
  ret i32 %.0
}